; Function Attrs: mustprogress uwtable
define internal fastcc { ptr, i8 } @_ZN4ofbxL18parseNodeAttributeERKNS_5SceneERKNS_7ElementE(ptr noundef nonnull align 8 dereferenceable(296) %0, ptr noundef nonnull align 8 dereferenceable(56) %1) unnamed_addr #8 personality ptr @__gxx_personality_v0 {
  %3 = tail call noalias noundef nonnull dereferenceable(200) ptr @_Znwm(i64 noundef 200) #32
  store ptr getelementptr inbounds ({ [5 x ptr] }, ptr @_ZTVN4ofbx6ObjectE, i64 0, i32 0, i64 2), ptr %3, align 8
  %4 = getelementptr inbounds i8, ptr %3, i64 144
  store ptr %1, ptr %4, align 8
  %5 = getelementptr inbounds i8, ptr %3, i64 152
  store ptr null, ptr %5, align 8
  %6 = getelementptr inbounds i8, ptr %3, i64 160
  store i8 0, ptr %6, align 8
  %7 = getelementptr inbounds i8, ptr %3, i64 168
  store ptr %0, ptr %7, align 8
  %8 = getelementptr inbounds i8, ptr %1, i64 48
  %9 = load ptr, ptr %8, align 8
  %.not.i.i.i = icmp eq ptr %9, null
  br i1 %.not.i.i.i, label %29, label %10

10:                                               ; preds = %2
  %11 = getelementptr inbounds i8, ptr %9, i64 40
  %12 = load ptr, ptr %11, align 8
  %.not8.i.i.i = icmp eq ptr %12, null
  br i1 %.not8.i.i.i, label %29, label %13

13:                                               ; preds = %10
  %14 = getelementptr inbounds i8, ptr %12, i64 16
  %15 = getelementptr inbounds i8, ptr %3, i64 16
  %16 = load ptr, ptr %14, align 8
  %17 = getelementptr inbounds i8, ptr %12, i64 24
  %18 = ptrtoint ptr %15 to i64
  %19 = load ptr, ptr %17, align 8
  %.not.i.i.i.i = icmp eq ptr %16, %19
  br i1 %.not.i.i.i.i, label %_ZNK4ofbx8DataView8toStringILi128EEEvRAT__c.exit.i.i.i, label %.lr.ph.i.i.i.i

.lr.ph.i.i.i.i:                                   ; preds = %13, %.lr.ph.i.i.i.i
  %.012.i.i.i.i = phi ptr [ %21, %.lr.ph.i.i.i.i ], [ %16, %13 ]
  %.01011.i.i.i.i = phi ptr [ %22, %.lr.ph.i.i.i.i ], [ %15, %13 ]
  %20 = load i8, ptr %.012.i.i.i.i, align 1
  store i8 %20, ptr %.01011.i.i.i.i, align 1
  %21 = getelementptr inbounds i8, ptr %.012.i.i.i.i, i64 1
  %22 = getelementptr inbounds i8, ptr %.01011.i.i.i.i, i64 1
  %23 = load ptr, ptr %17, align 8
  %24 = icmp ne ptr %21, %23
  %25 = ptrtoint ptr %22 to i64
  %26 = sub i64 %25, %18
  %27 = icmp slt i64 %26, 127
  %28 = select i1 %24, i1 %27, i1 false
  br i1 %28, label %.lr.ph.i.i.i.i, label %_ZNK4ofbx8DataView8toStringILi128EEEvRAT__c.exit.i.i.i, !llvm.loop !7

_ZNK4ofbx8DataView8toStringILi128EEEvRAT__c.exit.i.i.i: ; preds = %.lr.ph.i.i.i.i, %13
  %.010.lcssa.i.i.i.i = phi ptr [ %15, %13 ], [ %22, %.lr.ph.i.i.i.i ]
  store i8 0, ptr %.010.lcssa.i.i.i.i, align 1
  br label %31

29:                                               ; preds = %10, %2
  %30 = getelementptr inbounds i8, ptr %3, i64 16
  store i8 0, ptr %30, align 8
  br label %31

31:                                               ; preds = %29, %_ZNK4ofbx8DataView8toStringILi128EEEvRAT__c.exit.i.i.i
  store ptr getelementptr inbounds ({ [6 x ptr] }, ptr @_ZTVN4ofbx17NodeAttributeImplE, i64 0, i32 0, i64 2), ptr %3, align 8
  %32 = getelementptr inbounds i8, ptr %3, i64 176
  %33 = getelementptr inbounds i8, ptr %3, i64 192
  tail call void @llvm.memset.p0.i64(ptr noundef nonnull align 8 dereferenceable(16) %32, i8 0, i64 16, i1 false)
  store i8 1, ptr %33, align 8
  %34 = getelementptr inbounds i8, ptr %1, i64 32
  %35 = load ptr, ptr %34, align 8
  %.not10.i = icmp eq ptr %35, null
  br i1 %.not10.i, label %_ZN4ofbxL9findChildERKNS_7ElementEPKc.exit.thread, label %.lr.ph.split.i

.lr.ph.split.i:                                   ; preds = %31, %_ZNK4ofbx8DataVieweqEPKc.exit.thread.i
  %36 = phi ptr [ %49, %_ZNK4ofbx8DataVieweqEPKc.exit.thread.i ], [ %35, %31 ]
  %37 = getelementptr inbounds i8, ptr %36, i64 8
  %38 = load ptr, ptr %37, align 8
  %39 = getelementptr inbounds i8, ptr %36, i64 16
  %40 = load ptr, ptr %39, align 8
  %.not1420.i.i = icmp eq ptr %38, %40
  br i1 %.not1420.i.i, label %_ZNK4ofbx8DataVieweqEPKc.exit.thread.i, label %.lr.ph.i.i

.lr.ph.i.i:                                       ; preds = %.lr.ph.split.i, %43
  %41 = phi i8 [ %46, %43 ], [ 84, %.lr.ph.split.i ]
  %.023.i.i = phi ptr [ %45, %43 ], [ %38, %.lr.ph.split.i ]
  %.01122.i.i = phi ptr [ %44, %43 ], [ @.str.106, %.lr.ph.split.i ]
  %42 = load i8, ptr %.023.i.i, align 1
  %.not15.i.i = icmp eq i8 %41, %42
  br i1 %.not15.i.i, label %43, label %_ZNK4ofbx8DataVieweqEPKc.exit.thread.i

43:                                               ; preds = %.lr.ph.i.i
  %44 = getelementptr inbounds i8, ptr %.01122.i.i, i64 1
  %45 = getelementptr inbounds i8, ptr %.023.i.i, i64 1
  %46 = load i8, ptr %44, align 1
  %.not.i.i = icmp eq i8 %46, 0
  %.not14.i.i = icmp eq ptr %45, %40
  %or.cond.i.i = select i1 %.not.i.i, i1 true, i1 %.not14.i.i
  br i1 %or.cond.i.i, label %_ZNK4ofbx8DataVieweqEPKc.exit.i, label %.lr.ph.i.i, !llvm.loop !5

_ZNK4ofbx8DataVieweqEPKc.exit.i:                  ; preds = %43
  %47 = and i1 %.not14.i.i, %.not.i.i
  br i1 %47, label %_ZN4ofbxL9findChildERKNS_7ElementEPKc.exit, label %_ZNK4ofbx8DataVieweqEPKc.exit.thread.i

_ZNK4ofbx8DataVieweqEPKc.exit.thread.i:           ; preds = %.lr.ph.i.i, %_ZNK4ofbx8DataVieweqEPKc.exit.i, %.lr.ph.split.i
  %48 = getelementptr inbounds i8, ptr %36, i64 40
  %49 = load ptr, ptr %48, align 8
  %.not.i = icmp eq ptr %49, null
  br i1 %.not.i, label %_ZN4ofbxL9findChildERKNS_7ElementEPKc.exit.thread, label %.lr.ph.split.i, !llvm.loop !8

_ZN4ofbxL9findChildERKNS_7ElementEPKc.exit:       ; preds = %_ZNK4ofbx8DataVieweqEPKc.exit.i
  %50 = getelementptr inbounds i8, ptr %36, i64 48
  %51 = load ptr, ptr %50, align 8
  %.not10 = icmp eq ptr %51, null
  br i1 %.not10, label %_ZN4ofbxL9findChildERKNS_7ElementEPKc.exit.thread, label %52

52:                                               ; preds = %_ZN4ofbxL9findChildERKNS_7ElementEPKc.exit
  %53 = getelementptr inbounds i8, ptr %51, i64 16
  tail call void @llvm.memcpy.p0.p0.i64(ptr noundef nonnull align 8 dereferenceable(17) %32, ptr noundef nonnull align 8 dereferenceable(17) %53, i64 17, i1 false)
  br label %_ZN4ofbxL9findChildERKNS_7ElementEPKc.exit.thread

_ZN4ofbxL9findChildERKNS_7ElementEPKc.exit.thread: ; preds = %_ZNK4ofbx8DataVieweqEPKc.exit.thread.i, %31, %52, %_ZN4ofbxL9findChildERKNS_7ElementEPKc.exit
  %.fca.0.insert = insertvalue { ptr, i8 } poison, ptr %3, 0
  %.fca.1.insert = insertvalue { ptr, i8 } %.fca.0.insert, i8 0, 1
  ret { ptr, i8 } %.fca.1.insert
}